; Function Attrs: noreturn nounwind sspstrong uwtable
define dso_local noundef i64 @rb_f_exit(i32 noundef %0, ptr noundef readonly captures(none) %1) local_unnamed_addr #7 {
  %or.cond.not = icmp ult i32 %0, 2
  br i1 %or.cond.not, label %rb_check_arity.exit, label %3

3:                                                ; preds = %2
  tail call void @rb_error_arity(i32 noundef %0, i32 noundef 0, i32 noundef 1) #29
  unreachable

rb_check_arity.exit:                              ; preds = %2
  %4 = icmp eq i32 %0, 1
  br i1 %4, label %5, label %exit_status_code.exit

5:                                                ; preds = %rb_check_arity.exit
  %6 = load i64, ptr %1, align 8, !tbaa !43
  switch i64 %6, label %8 [
    i64 20, label %exit_status_code.exit
    i64 0, label %7
  ]

7:                                                ; preds = %5
  br label %exit_status_code.exit

8:                                                ; preds = %5
  %9 = and i64 %6, 1
  %.not.i.i = icmp eq i64 %9, 0
  br i1 %.not.i.i, label %12, label %10

10:                                               ; preds = %8
  %11 = tail call i64 @rb_fix2int(i64 noundef %6) #27
  br label %rb_num2int_inline.exit.i

12:                                               ; preds = %8
  %13 = tail call i64 @rb_num2int(i64 noundef %6) #27
  br label %rb_num2int_inline.exit.i

rb_num2int_inline.exit.i:                         ; preds = %12, %10
  %.0.i.i = phi i64 [ %11, %10 ], [ %13, %12 ]
  %14 = trunc i64 %.0.i.i to i32
  br label %exit_status_code.exit

exit_status_code.exit:                            ; preds = %rb_num2int_inline.exit.i, %7, %5, %rb_check_arity.exit
  %.0 = phi i32 [ 0, %rb_check_arity.exit ], [ %14, %rb_num2int_inline.exit.i ], [ 1, %7 ], [ 0, %5 ]
  tail call void @rb_exit(i32 noundef %.0) #33
  unreachable
}